; Function Attrs: mustprogress uwtable
define dso_local noundef nonnull ptr @_ZNK3Lhs5cloneEv(ptr noundef nonnull readonly align 8 captures(none) dereferenceable(41) %0) unnamed_addr #3 align 2 personality ptr @__gxx_personality_v0 {
  %2 = tail call noalias noundef nonnull dereferenceable(48) ptr @_Znwm(i64 noundef 48) #17
  invoke void @_ZN10ExpressionC2E9eTermType(ptr noundef nonnull align 8 dereferenceable(41) %2, i32 noundef 5)
          to label %3 unwind label %13

3:                                                ; preds = %1
  store ptr getelementptr inbounds nuw inrange(-16, 176) (i8, ptr @_ZTV3Lhs, i64 16), ptr %2, align 8, !tbaa !89
  %4 = getelementptr inbounds nuw i8, ptr %2, i64 24
  %5 = getelementptr inbounds nuw i8, ptr %0, i64 24
  %6 = load ptr, ptr %5, align 8, !tbaa !97
  store ptr %6, ptr %4, align 8, !tbaa !91
  %7 = getelementptr inbounds nuw i8, ptr %2, i64 32
  %8 = getelementptr inbounds nuw i8, ptr %0, i64 32
  %9 = load ptr, ptr %8, align 8, !tbaa !92
  store ptr %9, ptr %7, align 8, !tbaa !92
  %10 = getelementptr inbounds nuw i8, ptr %2, i64 40
  %11 = getelementptr inbounds nuw i8, ptr %0, i64 40
  %12 = load i8, ptr %11, align 8, !tbaa !96, !range !62, !noundef !63
  store i8 %12, ptr %10, align 8, !tbaa !96
  ret ptr %2

13:                                               ; preds = %1
  %14 = landingpad { ptr, i32 }
          cleanup
  tail call void @_ZdlPvm(ptr noundef nonnull %2, i64 noundef 48) #18
  resume { ptr, i32 } %14
}